target datalayout = "e-m:e-p270:32:32-p271:32:32-p272:64:64-i64:64-i128:128-f80:128-n8:16:32:64-S128"
target triple = "x86_64-pc-linux-gnu"

%struct.decrypt_data = type { i8, %struct._address, i32, i32, i32, i32, i64, i64, i32, i32, i32, ptr, i32, ptr, i32, [256 x i8], i32, ptr, i32 }
%struct._address = type { i32, i32, ptr, ptr }

@proto_isakmp = internal global i32 0, align 4

; Function Attrs: alwaysinline nounwind
define internal ptr @memcpy.inline(ptr noalias %0, ptr noalias %1, i64 %2) #8 {
  %4 = alloca ptr, align 8
  %5 = alloca ptr, align 8
  %6 = alloca i64, align 8
  store ptr %0, ptr %4, align 8
  store ptr %1, ptr %5, align 8
  store i64 %2, ptr %6, align 8
  %7 = load ptr, ptr %4, align 8
  %8 = load ptr, ptr %5, align 8
  %9 = load i64, ptr %6, align 8
  %10 = load ptr, ptr %4, align 8
  %11 = call i64 @llvm.objectsize.i64.p0(ptr %10, i1 false, i1 true, i1 true)
  %12 = call ptr @__memcpy_chk(ptr noundef %7, ptr noundef %8, i64 noundef %9, i64 noundef %11) #16
  ret ptr %12
}

; Function Attrs: null_pointer_is_valid sspstrong uwtable
define internal void @set_next_iv(ptr noundef %0, i32 noundef %1, i32 noundef %2, ptr noundef %3) #0 {
  %5 = alloca ptr, align 8
  %6 = alloca i32, align 4
  %7 = alloca i32, align 4
  %8 = alloca ptr, align 8
  %9 = alloca ptr, align 8
  %10 = alloca i64, align 8
  %11 = alloca ptr, align 8
  store ptr %0, ptr %5, align 8
  store i32 %1, ptr %6, align 4
  store i32 %2, ptr %7, align 4
  store ptr %3, ptr %8, align 8
  call void @llvm.lifetime.start.p0(i64 8, ptr %9) #16
  call void @llvm.lifetime.start.p0(i64 8, ptr %10) #16
  call void @llvm.lifetime.start.p0(i64 8, ptr %11) #16
  %12 = load ptr, ptr %8, align 8
  %13 = getelementptr inbounds nuw %struct.decrypt_data, ptr %12, i32 0, i32 7
  %14 = load i64, ptr %13, align 8
  store i64 %14, ptr %10, align 8
  %15 = load i32, ptr %6, align 4
  %16 = zext i32 %15 to i64
  %17 = load i64, ptr %10, align 8
  %18 = icmp ult i64 %16, %17
  br i1 %18, label %19, label %20

19:                                               ; preds = %4
  store ptr null, ptr %9, align 8
  br label %34

20:                                               ; preds = %4
  %21 = call ptr @wmem_file_scope()
  %22 = load i64, ptr %10, align 8
  %23 = call noalias ptr @wmem_alloc(ptr noundef %21, i64 noundef %22) #17
  store ptr %23, ptr %9, align 8
  %24 = load ptr, ptr %9, align 8
  %25 = load ptr, ptr %5, align 8
  %26 = load i32, ptr %6, align 4
  %27 = zext i32 %26 to i64
  %28 = getelementptr i8, ptr %25, i64 %27
  %29 = load i64, ptr %10, align 8
  %30 = sub i64 0, %29
  %31 = getelementptr i8, ptr %28, i64 %30
  %32 = load i64, ptr %10, align 8
  %33 = call ptr @memcpy.inline(ptr noundef %24, ptr noundef %31, i64 noundef %32) #16
  br label %34

34:                                               ; preds = %20, %19
  %35 = load i32, ptr %7, align 4
  %36 = zext i32 %35 to i64
  %37 = inttoptr i64 %36 to ptr
  store ptr %37, ptr %11, align 8
  %38 = load ptr, ptr %8, align 8
  %39 = getelementptr inbounds nuw %struct.decrypt_data, ptr %38, i32 0, i32 17
  %40 = load ptr, ptr %39, align 8
  %41 = load ptr, ptr %11, align 8
  %42 = load ptr, ptr %9, align 8
  %43 = call i32 @g_hash_table_insert(ptr noundef %40, ptr noundef %41, ptr noundef %42)
  call void @llvm.lifetime.end.p0(i64 8, ptr %11) #16
  call void @llvm.lifetime.end.p0(i64 8, ptr %10) #16
  call void @llvm.lifetime.end.p0(i64 8, ptr %9) #16
  ret void
}

; Function Attrs: null_pointer_is_valid sspstrong uwtable
define internal ptr @get_iv(i32 noundef %0, ptr noundef %1) #0 {
  %3 = alloca ptr, align 8
  %4 = alloca i32, align 4
  %5 = alloca ptr, align 8
  %6 = alloca ptr, align 8
  %7 = alloca ptr, align 8
  %8 = alloca i64, align 8
  %9 = alloca ptr, align 8
  %10 = alloca i32, align 4
  %11 = alloca i8, align 1
  %12 = alloca i32, align 4
  %13 = alloca i32, align 4
  %14 = alloca i32, align 4
  %15 = alloca i32, align 4
  store i32 %0, ptr %4, align 4
  store ptr %1, ptr %5, align 8
  call void @llvm.lifetime.start.p0(i64 8, ptr %6) #16
  call void @llvm.lifetime.start.p0(i64 8, ptr %7) #16
  call void @llvm.lifetime.start.p0(i64 8, ptr %8) #16
  call void @llvm.lifetime.start.p0(i64 8, ptr %9) #16
  call void @llvm.lifetime.start.p0(i64 4, ptr %10) #16
  call void @llvm.lifetime.start.p0(i64 1, ptr %11) #16
  %16 = load ptr, ptr %5, align 8
  %17 = getelementptr inbounds nuw %struct.decrypt_data, ptr %16, i32 0, i32 7
  %18 = load i64, ptr %17, align 8
  store i64 %18, ptr %8, align 8
  %19 = load i32, ptr %4, align 4
  %20 = zext i32 %19 to i64
  %21 = inttoptr i64 %20 to ptr
  store ptr %21, ptr %9, align 8
  %22 = load ptr, ptr %5, align 8
  %23 = getelementptr inbounds nuw %struct.decrypt_data, ptr %22, i32 0, i32 17
  %24 = load ptr, ptr %23, align 8
  %25 = load ptr, ptr %9, align 8
  %26 = call i32 @g_hash_table_lookup_extended(ptr noundef %24, ptr noundef %25, ptr noundef null, ptr noundef %6)
  %27 = icmp ne i32 %26, 0
  %28 = zext i1 %27 to i8
  store i8 %28, ptr %11, align 1
  %29 = load i8, ptr %11, align 1, !range !6, !noundef !7
  %30 = trunc i8 %29 to i1
  br i1 %30, label %31, label %38

31:                                               ; preds = %2
  %32 = load ptr, ptr %5, align 8
  %33 = getelementptr inbounds nuw %struct.decrypt_data, ptr %32, i32 0, i32 17
  %34 = load ptr, ptr %33, align 8
  %35 = load ptr, ptr %9, align 8
  %36 = call i32 @g_hash_table_steal(ptr noundef %34, ptr noundef %35)
  %37 = load ptr, ptr %6, align 8
  store ptr %37, ptr %3, align 8
  store i32 1, ptr %12, align 4
  br label %76

38:                                               ; preds = %2
  %39 = load ptr, ptr %5, align 8
  %40 = getelementptr inbounds nuw %struct.decrypt_data, ptr %39, i32 0, i32 17
  %41 = load ptr, ptr %40, align 8
  %42 = call ptr @g_hash_table_lookup(ptr noundef %41, ptr noundef null)
  store ptr %42, ptr %7, align 8
  call void @llvm.lifetime.start.p0(i64 4, ptr %13) #16
  call void @llvm.lifetime.start.p0(i64 4, ptr %14) #16
  %43 = load i32, ptr %4, align 4
  store i32 %43, ptr %14, align 4
  %44 = load i32, ptr %14, align 4
  %45 = call i1 @llvm.is.constant.i32(i32 %44)
  br i1 %45, label %46, label %62

46:                                               ; preds = %38
  %47 = load i32, ptr %14, align 4
  %48 = and i32 %47, 255
  %49 = shl i32 %48, 24
  %50 = load i32, ptr %14, align 4
  %51 = and i32 %50, 65280
  %52 = shl i32 %51, 8
  %53 = or i32 %49, %52
  %54 = load i32, ptr %14, align 4
  %55 = and i32 %54, 16711680
  %56 = lshr i32 %55, 8
  %57 = or i32 %53, %56
  %58 = load i32, ptr %14, align 4
  %59 = and i32 %58, -16777216
  %60 = lshr i32 %59, 24
  %61 = or i32 %57, %60
  store i32 %61, ptr %13, align 4
  br label %65

62:                                               ; preds = %38
  %63 = load i32, ptr %14, align 4
  %64 = call i32 asm "bswapl $0", "=r,0,~{dirflag},~{fpsr},~{flags}"(i32 %63) #22, !srcloc !52
  store i32 %64, ptr %13, align 4
  br label %65

65:                                               ; preds = %62, %46
  %66 = load i32, ptr %13, align 4
  store i32 %66, ptr %15, align 4
  call void @llvm.lifetime.end.p0(i64 4, ptr %14) #16
  call void @llvm.lifetime.end.p0(i64 4, ptr %13) #16
  %67 = load i32, ptr %15, align 4
  store i32 %67, ptr %10, align 4
  %68 = load ptr, ptr %7, align 8
  %69 = load i64, ptr %8, align 8
  %70 = load ptr, ptr %5, align 8
  %71 = getelementptr inbounds nuw %struct.decrypt_data, ptr %70, i32 0, i32 8
  %72 = load i32, ptr %71, align 8
  %73 = load i64, ptr %8, align 8
  %74 = call ptr @generate_iv(ptr noundef %68, i64 noundef %69, ptr noundef %10, i64 noundef 4, i32 noundef %72, i64 noundef %73)
  store ptr %74, ptr %6, align 8
  %75 = load ptr, ptr %6, align 8
  store ptr %75, ptr %3, align 8
  store i32 1, ptr %12, align 4
  br label %76

76:                                               ; preds = %65, %31
  call void @llvm.lifetime.end.p0(i64 1, ptr %11) #16
  call void @llvm.lifetime.end.p0(i64 4, ptr %10) #16
  call void @llvm.lifetime.end.p0(i64 8, ptr %9) #16
  call void @llvm.lifetime.end.p0(i64 8, ptr %8) #16
  call void @llvm.lifetime.end.p0(i64 8, ptr %7) #16
  call void @llvm.lifetime.end.p0(i64 8, ptr %6) #16
  %77 = load ptr, ptr %3, align 8
  ret ptr %77
}

; Function Attrs: null_pointer_is_valid sspstrong uwtable
define internal void @update_ivs(ptr noundef %0, ptr noundef %1, i32 noundef %2, i32 noundef %3, ptr noundef %4) #0 {
  %6 = alloca ptr, align 8
  %7 = alloca ptr, align 8
  %8 = alloca i32, align 4
  %9 = alloca i32, align 4
  %10 = alloca ptr, align 8
  %11 = alloca ptr, align 8
  store ptr %0, ptr %6, align 8
  store ptr %1, ptr %7, align 8
  store i32 %2, ptr %8, align 4
  store i32 %3, ptr %9, align 4
  store ptr %4, ptr %10, align 8
  call void @llvm.lifetime.start.p0(i64 8, ptr %11) #16
  %12 = load i32, ptr %9, align 4
  %13 = load ptr, ptr %10, align 8
  %14 = call ptr @get_iv(i32 noundef %12, ptr noundef %13)
  store ptr %14, ptr %11, align 8
  %15 = call ptr @wmem_file_scope()
  %16 = load ptr, ptr %6, align 8
  %17 = load i32, ptr @proto_isakmp, align 4
  %18 = load ptr, ptr %11, align 8
  call void @p_add_proto_data(ptr noundef %15, ptr noundef %16, i32 noundef %17, i32 noundef 1, ptr noundef %18)
  %19 = load ptr, ptr %7, align 8
  %20 = load i32, ptr %8, align 4
  %21 = load i32, ptr %9, align 4
  %22 = load ptr, ptr %10, align 8
  call void @set_next_iv(ptr noundef %19, i32 noundef %20, i32 noundef %21, ptr noundef %22)
  call void @llvm.lifetime.end.p0(i64 8, ptr %11) #16
  ret void
}