; Function Attrs: null_pointer_is_valid sspstrong uwtable
define internal fastcc void @update_ivs(ptr noundef %0, ptr noundef readonly captures(none) %1, i32 noundef range(i32 1, -2147483648) %2, i32 noundef %3, ptr noundef readonly captures(none) %4) unnamed_addr #0 {
  %6 = alloca ptr, align 8
  %7 = alloca i32, align 4
  call void @llvm.lifetime.start.p0(i64 8, ptr nonnull %6) #20
  call void @llvm.lifetime.start.p0(i64 4, ptr nonnull %7) #20
  %8 = getelementptr inbounds nuw i8, ptr %4, i64 56
  %9 = load i64, ptr %8, align 8
  %10 = zext i32 %3 to i64
  %11 = inttoptr i64 %10 to ptr
  %12 = getelementptr inbounds nuw i8, ptr %4, i64 368
  %13 = load ptr, ptr %12, align 8
  %14 = call i32 @g_hash_table_lookup_extended(ptr noundef %13, ptr noundef %11, ptr noundef null, ptr noundef nonnull %6)
  %.not.i = icmp eq i32 %14, 0
  %15 = load ptr, ptr %12, align 8
  br i1 %.not.i, label %19, label %16

16:                                               ; preds = %5
  %17 = call i32 @g_hash_table_steal(ptr noundef %15, ptr noundef %11)
  %18 = load ptr, ptr %6, align 8
  br label %get_iv.exit

19:                                               ; preds = %5
  %20 = call ptr @g_hash_table_lookup(ptr noundef %15, ptr noundef null)
  %21 = call i32 asm "bswapl $0", "=r,0,~{dirflag},~{fpsr},~{flags}"(i32 %3) #26, !srcloc !62
  store i32 %21, ptr %7, align 4
  %22 = getelementptr inbounds nuw i8, ptr %4, i64 64
  %23 = load i32, ptr %22, align 8
  %24 = call fastcc ptr @generate_iv(ptr noundef %20, i64 noundef %9, ptr noundef nonnull %7, i64 noundef 4, i32 noundef %23, i64 noundef %9)
  br label %get_iv.exit

get_iv.exit:                                      ; preds = %16, %19
  %.0.i = phi ptr [ %18, %16 ], [ %24, %19 ]
  call void @llvm.lifetime.end.p0(i64 4, ptr nonnull %7) #20
  call void @llvm.lifetime.end.p0(i64 8, ptr nonnull %6) #20
  %25 = call ptr @wmem_file_scope()
  %26 = load i32, ptr @proto_isakmp, align 4
  call void @p_add_proto_data(ptr noundef %25, ptr noundef %0, i32 noundef %26, i32 noundef 1, ptr noundef %.0.i)
  %27 = load i64, ptr %8, align 8
  %28 = zext nneg i32 %2 to i64
  %29 = icmp ugt i64 %27, %28
  br i1 %29, label %set_next_iv.exit, label %30

30:                                               ; preds = %get_iv.exit
  %31 = call ptr @wmem_file_scope()
  %32 = call noalias ptr @wmem_alloc(ptr noundef %31, i64 noundef %27) #22
  %33 = getelementptr i8, ptr %1, i64 %28
  %34 = sub nsw i64 0, %27
  %35 = getelementptr i8, ptr %33, i64 %34
  call void @llvm.memcpy.p0.p0.i64(ptr noundef align 1 %32, ptr noundef readonly align 1 %35, i64 noundef %27, i1 noundef false) #20
  br label %set_next_iv.exit

set_next_iv.exit:                                 ; preds = %get_iv.exit, %30
  %.0.i7 = phi ptr [ %32, %30 ], [ null, %get_iv.exit ]
  %36 = load ptr, ptr %12, align 8
  %37 = call i32 @g_hash_table_insert(ptr noundef %36, ptr noundef %11, ptr noundef %.0.i7)
  ret void
}